	.file	"typeof.c"
	.text
.Ltext0:
	.globl	main
	.type	main, @function
main:
.LFB2:
	.file 1 "typeof.c"
	.loc 1 6 0
	.cfi_startproc
	pushq	%rbp
	.cfi_def_cfa_offset 16
	.cfi_offset 6, -16
	movq	%rsp, %rbp
	.cfi_def_cfa_register 6
	pushq	%r15
	pushq	%r14
	pushq	%r13
	pushq	%r12
	pushq	%rbx
	subq	$120, %rsp
	.cfi_offset 15, -24
	.cfi_offset 14, -32
	.cfi_offset 13, -40
	.cfi_offset 12, -48
	.cfi_offset 3, -56
	movl	%edi, -100(%rbp)
	movq	%rsi, -112(%rbp)
	.loc 1 6 0
	movq	%fs:40, %rax
	movq	%rax, -56(%rbp)
	xorl	%eax, %eax
	movq	%rsp, %rax
	movq	%rax, %rbx
	.loc 1 7 0
	movq	-112(%rbp), %rax
	addq	$8, %rax
	movq	(%rax), %rax
	movl	$0, %edx
	movl	$0, %esi
	movq	%rax, %rdi
	call	strtoull
	movq	%rax, -88(%rbp)
	.loc 1 8 0
	movq	-88(%rbp), %rcx
	movq	-88(%rbp), %rsi
	movq	%rcx, %rax
	subq	$1, %rax
	movq	%rax, -80(%rbp)
	movq	%rcx, -160(%rbp)
	movq	$0, -152(%rbp)
	movq	%rsi, %rax
	subq	$1, %rax
	movq	%rax, -72(%rbp)
	movq	%rcx, -128(%rbp)
	movq	$0, -120(%rbp)
	movq	%rsi, -144(%rbp)
	movq	$0, -136(%rbp)
	movq	-128(%rbp), %r8
	movq	-120(%rbp), %r9
	movq	%r9, %rdx
	movq	-144(%rbp), %r10
	movq	-136(%rbp), %r11
	imulq	%r10, %rdx
	movq	%r11, %rax
	imulq	%r8, %rax
	leaq	(%rdx,%rax), %rdi
	movq	%r8, %rax
	mulq	%r10
	addq	%rdx, %rdi
	movq	%rdi, %rdx
	movq	%rcx, %r14
	movl	$0, %r15d
	movq	%rsi, %r12
	movl	$0, %r13d
	movq	%r15, %rdx
	imulq	%r12, %rdx
	movq	%r13, %rax
	imulq	%r14, %rax
	leaq	(%rdx,%rax), %rdi
	movq	%r14, %rax
	mulq	%r12
	addq	%rdx, %rdi
	movq	%rdi, %rdx
	movq	%rcx, %rax
	imulq	%rsi, %rax
	salq	$3, %rax
	leaq	7(%rax), %rdx
	movl	$16, %eax
	subq	$1, %rax
	addq	%rdx, %rax
	movl	$16, %ecx
	movl	$0, %edx
	divq	%rcx
	imulq	$16, %rax, %rax
	subq	%rax, %rsp
	movq	%rsp, %rax
	addq	$7, %rax
	shrq	$3, %rax
	salq	$3, %rax
	movq	%rax, -64(%rbp)
	.loc 1 10 0
	movl	$0, %eax
	movq	%rbx, %rsp
	.loc 1 11 0
	movq	-56(%rbp), %rbx
	xorq	%fs:40, %rbx
	je	.L3
	call	__stack_chk_fail
.L3:
	leaq	-40(%rbp), %rsp
	popq	%rbx
	popq	%r12
	popq	%r13
	popq	%r14
	popq	%r15
	popq	%rbp
	.cfi_def_cfa 7, 8
	ret
	.cfi_endproc
.LFE2:
	.size	main, .-main
.Letext0:
	.file 2 "/usr/lib/gcc/x86_64-linux-gnu/5/include/stddef.h"
	.section	.note.GNU-stack,"",@progbits
