; Listing generated by Microsoft (R) Optimizing Compiler Version 18.00.40629.0 

	TITLE	d:\study\system\c++\src\std\delete.cpp
	.686P
	.XMM
	include listing.inc
	.model	flat

INCLUDELIB LIBCMT
INCLUDELIB OLDNAMES

PUBLIC	_main
EXTRN	??3@YAXPAX@Z:PROC				; operator delete
; Function compile flags: /Odtp
; File d:\study\system\c++\src\std\delete.cpp
_TEXT	SEGMENT
$T1 = -8						; size = 4
_a$ = -4						; size = 4
_main	PROC

; 4    : {

  00000	55		 push	 ebp
  00001	8b ec		 mov	 ebp, esp
  00003	83 ec 08	 sub	 esp, 8

; 5    : 	int *a = NULL;

  00006	c7 45 fc 00 00
	00 00		 mov	 DWORD PTR _a$[ebp], 0

; 6    : 
; 7    : 	delete a;

  0000d	8b 45 fc	 mov	 eax, DWORD PTR _a$[ebp]
  00010	89 45 f8	 mov	 DWORD PTR $T1[ebp], eax
  00013	8b 4d f8	 mov	 ecx, DWORD PTR $T1[ebp]
  00016	51		 push	 ecx
  00017	e8 00 00 00 00	 call	 ??3@YAXPAX@Z		; operator delete
  0001c	83 c4 04	 add	 esp, 4

; 8    : 
; 9    : 	return(0);

  0001f	33 c0		 xor	 eax, eax

; 10   : }

  00021	8b e5		 mov	 esp, ebp
  00023	5d		 pop	 ebp
  00024	c3		 ret	 0
_main	ENDP
_TEXT	ENDS
END
